; ModuleID = 'source-C-CXX/11/1438.cpp'
source_filename = "source-C-CXX/11/1438.cpp"
target datalayout = "e-m:e-p270:32:32-p271:32:32-p272:64:64-i64:64-f80:128-n8:16:32:64-S128"
target triple = "x86_64-pc-linux-gnu"

%"class.std::ios_base::Init" = type { i8 }
%"class.std::basic_istream" = type { i32 (...)**, i64, %"class.std::basic_ios" }
%"class.std::basic_ios" = type { %"class.std::ios_base", %"class.std::basic_ostream"*, i8, i8, %"class.std::basic_streambuf"*, %"class.std::ctype"*, %"class.std::num_put"*, %"class.std::num_get"* }
%"class.std::ios_base" = type { i32 (...)**, i64, i64, i32, i32, i32, %"struct.std::ios_base::_Callback_list"*, %"struct.std::ios_base::_Words", [8 x %"struct.std::ios_base::_Words"], i32, %"struct.std::ios_base::_Words"*, %"class.std::locale" }
%"struct.std::ios_base::_Callback_list" = type { %"struct.std::ios_base::_Callback_list"*, void (i32, %"class.std::ios_base"*, i32)*, i32, i32 }
%"struct.std::ios_base::_Words" = type { i8*, i64 }
%"class.std::locale" = type { %"class.std::locale::_Impl"* }
%"class.std::locale::_Impl" = type { i32, %"class.std::locale::facet"**, i64, %"class.std::locale::facet"**, i8** }
%"class.std::locale::facet" = type <{ i32 (...)**, i32, [4 x i8] }>
%"class.std::basic_ostream" = type { i32 (...)**, %"class.std::basic_ios" }
%"class.std::basic_streambuf" = type { i32 (...)**, i8*, i8*, i8*, i8*, i8*, i8*, %"class.std::locale" }
%"class.std::ctype" = type <{ %"class.std::locale::facet.base", [4 x i8], %struct.__locale_struct*, i8, [7 x i8], i32*, i32*, i16*, i8, [256 x i8], [256 x i8], i8, [6 x i8] }>
%"class.std::locale::facet.base" = type <{ i32 (...)**, i32 }>
%struct.__locale_struct = type { [13 x %struct.__locale_data*], i16*, i32*, i32*, [13 x i8*] }
%struct.__locale_data = type opaque
%"class.std::num_put" = type { %"class.std::locale::facet.base", [4 x i8] }
%"class.std::num_get" = type { %"class.std::locale::facet.base", [4 x i8] }

@_ZStL8__ioinit = internal global %"class.std::ios_base::Init" zeroinitializer, align 1
@__dso_handle = external hidden global i8
@_ZSt3cin = external global %"class.std::basic_istream", align 8
@_ZSt4cout = external global %"class.std::basic_ostream", align 8
@llvm.global_ctors = appending global [1 x { i32, void ()*, i8* }] [{ i32, void ()*, i8* } { i32 65535, void ()* @_GLOBAL__sub_I_1438.cpp, i8* null }]

declare void @_ZNSt8ios_base4InitC1Ev(%"class.std::ios_base::Init"* nonnull align 1 dereferenceable(1)) unnamed_addr #0

; Function Attrs: nounwind
declare void @_ZNSt8ios_base4InitD1Ev(%"class.std::ios_base::Init"* nonnull align 1 dereferenceable(1)) unnamed_addr #1

; Function Attrs: nofree nounwind
declare i32 @__cxa_atexit(void (i8*)*, i8*, i8*) local_unnamed_addr #2

; Function Attrs: mustprogress norecurse sspstrong uwtable
define dso_local i32 @main() local_unnamed_addr #3 {
  %1 = alloca [15 x i32], align 16
  %2 = alloca i32, align 4
  %3 = alloca i32, align 4
  %4 = bitcast [15 x i32]* %1 to i8*
  call void @llvm.lifetime.start.p0i8(i64 60, i8* nonnull %4) #9
  call void @llvm.memset.p0i8.i64(i8* noundef nonnull align 16 dereferenceable(60) %4, i8 0, i64 60, i1 false)
  %5 = bitcast i32* %2 to i8*
  call void @llvm.lifetime.start.p0i8(i64 4, i8* nonnull %5) #9
  store i32 1, i32* %2, align 4, !tbaa !5
  %6 = bitcast i32* %3 to i8*
  call void @llvm.lifetime.start.p0i8(i64 4, i8* nonnull %6) #9
  store i32 1, i32* %3, align 4, !tbaa !5
  %7 = getelementptr inbounds [15 x i32], [15 x i32]* %1, i64 0, i64 0
  br label %8

8:                                                ; preds = %0, %133
  %9 = call nonnull align 8 dereferenceable(16) %"class.std::basic_istream"* @_ZNSirsERi(%"class.std::basic_istream"* nonnull align 8 dereferenceable(16) @_ZSt3cin, i32* nonnull align 4 dereferenceable(4) %3)
  %10 = load i32, i32* %3, align 4, !tbaa !5
  store i32 %10, i32* %7, align 16, !tbaa !5
  %11 = load i32, i32* %2, align 4, !tbaa !5
  %12 = icmp eq i32 %11, 0
  br i1 %12, label %105, label %22

13:                                               ; preds = %22
  %14 = trunc i64 %27 to i32
  %15 = icmp slt i32 %14, 2
  br i1 %15, label %105, label %16

16:                                               ; preds = %13
  %17 = add i64 %23, 4294967295
  %18 = add nsw i32 %14, -1
  %19 = and i64 %17, 4294967295
  %20 = zext i32 %18 to i64
  %21 = add i64 %23, 4294967294
  br label %33

22:                                               ; preds = %8, %22
  %23 = phi i64 [ %27, %22 ], [ 1, %8 ]
  %24 = call nonnull align 8 dereferenceable(16) %"class.std::basic_istream"* @_ZNSirsERi(%"class.std::basic_istream"* nonnull align 8 dereferenceable(16) @_ZSt3cin, i32* nonnull align 4 dereferenceable(4) %2)
  %25 = load i32, i32* %2, align 4, !tbaa !5
  %26 = getelementptr inbounds [15 x i32], [15 x i32]* %1, i64 0, i64 %23
  store i32 %25, i32* %26, align 4, !tbaa !5
  %27 = add nuw i64 %23, 1
  %28 = icmp eq i32 %25, 0
  br i1 %28, label %13, label %22, !llvm.loop !9

29:                                               ; preds = %91, %84, %33
  %30 = phi i32 [ %36, %33 ], [ %86, %84 ], [ %101, %91 ]
  %31 = add nuw nsw i64 %35, 1
  %32 = icmp eq i64 %40, %20
  br i1 %32, label %105, label %33, !llvm.loop !11

33:                                               ; preds = %16, %29
  %34 = phi i64 [ 0, %16 ], [ %40, %29 ]
  %35 = phi i64 [ 1, %16 ], [ %31, %29 ]
  %36 = phi i32 [ 0, %16 ], [ %30, %29 ]
  %37 = sub i64 %21, %34
  %38 = and i64 %37, 4294967295
  %39 = add nuw nsw i64 %38, 1
  %40 = add nuw nsw i64 %34, 1
  %41 = icmp ult i64 %34, %19
  br i1 %41, label %42, label %29

42:                                               ; preds = %33
  %43 = getelementptr inbounds [15 x i32], [15 x i32]* %1, i64 0, i64 %34
  %44 = load i32, i32* %43, align 4, !tbaa !5
  %45 = shl nsw i32 %44, 1
  %46 = icmp ult i64 %38, 7
  br i1 %46, label %88, label %47

47:                                               ; preds = %42
  %48 = and i64 %39, 8589934584
  %49 = add nuw i64 %35, %48
  %50 = insertelement <4 x i32> <i32 poison, i32 0, i32 0, i32 0>, i32 %36, i32 0
  %51 = insertelement <4 x i32> poison, i32 %44, i32 0
  %52 = shufflevector <4 x i32> %51, <4 x i32> poison, <4 x i32> zeroinitializer
  %53 = insertelement <4 x i32> poison, i32 %44, i32 0
  %54 = shufflevector <4 x i32> %53, <4 x i32> poison, <4 x i32> zeroinitializer
  %55 = insertelement <4 x i32> poison, i32 %45, i32 0
  %56 = shufflevector <4 x i32> %55, <4 x i32> poison, <4 x i32> zeroinitializer
  %57 = insertelement <4 x i32> poison, i32 %45, i32 0
  %58 = shufflevector <4 x i32> %57, <4 x i32> poison, <4 x i32> zeroinitializer
  br label %59

59:                                               ; preds = %59, %47
  %60 = phi i64 [ 0, %47 ], [ %82, %59 ]
  %61 = phi <4 x i32> [ %50, %47 ], [ %80, %59 ]
  %62 = phi <4 x i32> [ zeroinitializer, %47 ], [ %81, %59 ]
  %63 = add i64 %35, %60
  %64 = getelementptr inbounds [15 x i32], [15 x i32]* %1, i64 0, i64 %63
  %65 = bitcast i32* %64 to <4 x i32>*
  %66 = load <4 x i32>, <4 x i32>* %65, align 4, !tbaa !5
  %67 = getelementptr inbounds i32, i32* %64, i64 4
  %68 = bitcast i32* %67 to <4 x i32>*
  %69 = load <4 x i32>, <4 x i32>* %68, align 4, !tbaa !5
  %70 = shl nsw <4 x i32> %66, <i32 1, i32 1, i32 1, i32 1>
  %71 = shl nsw <4 x i32> %69, <i32 1, i32 1, i32 1, i32 1>
  %72 = icmp eq <4 x i32> %52, %70
  %73 = icmp eq <4 x i32> %54, %71
  %74 = icmp eq <4 x i32> %66, %56
  %75 = icmp eq <4 x i32> %69, %58
  %76 = select <4 x i1> %72, <4 x i1> <i1 true, i1 true, i1 true, i1 true>, <4 x i1> %74
  %77 = select <4 x i1> %73, <4 x i1> <i1 true, i1 true, i1 true, i1 true>, <4 x i1> %75
  %78 = zext <4 x i1> %76 to <4 x i32>
  %79 = zext <4 x i1> %77 to <4 x i32>
  %80 = add <4 x i32> %61, %78
  %81 = add <4 x i32> %62, %79
  %82 = add nuw i64 %60, 8
  %83 = icmp eq i64 %82, %48
  br i1 %83, label %84, label %59, !llvm.loop !12

84:                                               ; preds = %59
  %85 = add <4 x i32> %81, %80
  %86 = call i32 @llvm.vector.reduce.add.v4i32(<4 x i32> %85)
  %87 = icmp eq i64 %39, %48
  br i1 %87, label %29, label %88

88:                                               ; preds = %42, %84
  %89 = phi i64 [ %35, %42 ], [ %49, %84 ]
  %90 = phi i32 [ %36, %42 ], [ %86, %84 ]
  br label %91

91:                                               ; preds = %88, %91
  %92 = phi i64 [ %102, %91 ], [ %89, %88 ]
  %93 = phi i32 [ %101, %91 ], [ %90, %88 ]
  %94 = getelementptr inbounds [15 x i32], [15 x i32]* %1, i64 0, i64 %92
  %95 = load i32, i32* %94, align 4, !tbaa !5
  %96 = shl nsw i32 %95, 1
  %97 = icmp eq i32 %44, %96
  %98 = icmp eq i32 %95, %45
  %99 = select i1 %97, i1 true, i1 %98
  %100 = zext i1 %99 to i32
  %101 = add nsw i32 %93, %100
  %102 = add nuw nsw i64 %92, 1
  %103 = trunc i64 %102 to i32
  %104 = icmp eq i32 %18, %103
  br i1 %104, label %29, label %91, !llvm.loop !14

105:                                              ; preds = %29, %8, %13
  %106 = phi i32 [ 0, %13 ], [ 0, %8 ], [ %30, %29 ]
  %107 = call nonnull align 8 dereferenceable(8) %"class.std::basic_ostream"* @_ZNSolsEi(%"class.std::basic_ostream"* nonnull align 8 dereferenceable(8) @_ZSt4cout, i32 %106)
  %108 = bitcast %"class.std::basic_ostream"* %107 to i8**
  %109 = load i8*, i8** %108, align 8, !tbaa !16
  %110 = getelementptr i8, i8* %109, i64 -24
  %111 = bitcast i8* %110 to i64*
  %112 = load i64, i64* %111, align 8
  %113 = bitcast %"class.std::basic_ostream"* %107 to i8*
  %114 = add nsw i64 %112, 240
  %115 = getelementptr inbounds i8, i8* %113, i64 %114
  %116 = bitcast i8* %115 to %"class.std::ctype"**
  %117 = load %"class.std::ctype"*, %"class.std::ctype"** %116, align 8, !tbaa !18
  %118 = icmp eq %"class.std::ctype"* %117, null
  br i1 %118, label %119, label %120

119:                                              ; preds = %105
  call void @_ZSt16__throw_bad_castv() #10
  unreachable

120:                                              ; preds = %105
  %121 = getelementptr inbounds %"class.std::ctype", %"class.std::ctype"* %117, i64 0, i32 8
  %122 = load i8, i8* %121, align 8, !tbaa !22
  %123 = icmp eq i8 %122, 0
  br i1 %123, label %127, label %124

124:                                              ; preds = %120
  %125 = getelementptr inbounds %"class.std::ctype", %"class.std::ctype"* %117, i64 0, i32 9, i64 10
  %126 = load i8, i8* %125, align 1, !tbaa !24
  br label %133

127:                                              ; preds = %120
  call void @_ZNKSt5ctypeIcE13_M_widen_initEv(%"class.std::ctype"* nonnull align 8 dereferenceable(570) %117)
  %128 = bitcast %"class.std::ctype"* %117 to i8 (%"class.std::ctype"*, i8)***
  %129 = load i8 (%"class.std::ctype"*, i8)**, i8 (%"class.std::ctype"*, i8)*** %128, align 8, !tbaa !16
  %130 = getelementptr inbounds i8 (%"class.std::ctype"*, i8)*, i8 (%"class.std::ctype"*, i8)** %129, i64 6
  %131 = load i8 (%"class.std::ctype"*, i8)*, i8 (%"class.std::ctype"*, i8)** %130, align 8
  %132 = call signext i8 %131(%"class.std::ctype"* nonnull align 8 dereferenceable(570) %117, i8 signext 10)
  br label %133

133:                                              ; preds = %124, %127
  %134 = phi i8 [ %126, %124 ], [ %132, %127 ]
  %135 = call nonnull align 8 dereferenceable(8) %"class.std::basic_ostream"* @_ZNSo3putEc(%"class.std::basic_ostream"* nonnull align 8 dereferenceable(8) %107, i8 signext %134)
  %136 = call nonnull align 8 dereferenceable(8) %"class.std::basic_ostream"* @_ZNSo5flushEv(%"class.std::basic_ostream"* nonnull align 8 dereferenceable(8) %135)
  store i32 1, i32* %2, align 4, !tbaa !5
  %137 = load i32, i32* %3, align 4, !tbaa !5
  %138 = icmp eq i32 %137, -1
  br i1 %138, label %139, label %8, !llvm.loop !25

139:                                              ; preds = %133
  call void @llvm.lifetime.end.p0i8(i64 4, i8* nonnull %6) #9
  call void @llvm.lifetime.end.p0i8(i64 4, i8* nonnull %5) #9
  call void @llvm.lifetime.end.p0i8(i64 60, i8* nonnull %4) #9
  ret i32 0
}

; Function Attrs: argmemonly mustprogress nofree nosync nounwind willreturn
declare void @llvm.lifetime.start.p0i8(i64 immarg, i8* nocapture) #4

; Function Attrs: argmemonly mustprogress nofree nounwind willreturn writeonly
declare void @llvm.memset.p0i8.i64(i8* nocapture writeonly, i8, i64, i1 immarg) #5

declare nonnull align 8 dereferenceable(16) %"class.std::basic_istream"* @_ZNSirsERi(%"class.std::basic_istream"* nonnull align 8 dereferenceable(16), i32* nonnull align 4 dereferenceable(4)) local_unnamed_addr #0

declare nonnull align 8 dereferenceable(8) %"class.std::basic_ostream"* @_ZNSolsEi(%"class.std::basic_ostream"* nonnull align 8 dereferenceable(8), i32) local_unnamed_addr #0

; Function Attrs: argmemonly mustprogress nofree nosync nounwind willreturn
declare void @llvm.lifetime.end.p0i8(i64 immarg, i8* nocapture) #4

declare nonnull align 8 dereferenceable(8) %"class.std::basic_ostream"* @_ZNSo3putEc(%"class.std::basic_ostream"* nonnull align 8 dereferenceable(8), i8 signext) local_unnamed_addr #0

declare nonnull align 8 dereferenceable(8) %"class.std::basic_ostream"* @_ZNSo5flushEv(%"class.std::basic_ostream"* nonnull align 8 dereferenceable(8)) local_unnamed_addr #0

; Function Attrs: noreturn
declare void @_ZSt16__throw_bad_castv() local_unnamed_addr #6

declare void @_ZNKSt5ctypeIcE13_M_widen_initEv(%"class.std::ctype"* nonnull align 8 dereferenceable(570)) local_unnamed_addr #0

; Function Attrs: sspstrong uwtable
define internal void @_GLOBAL__sub_I_1438.cpp() #7 section ".text.startup" {
  tail call void @_ZNSt8ios_base4InitC1Ev(%"class.std::ios_base::Init"* nonnull align 1 dereferenceable(1) @_ZStL8__ioinit)
  %1 = tail call i32 @__cxa_atexit(void (i8*)* bitcast (void (%"class.std::ios_base::Init"*)* @_ZNSt8ios_base4InitD1Ev to void (i8*)*), i8* getelementptr inbounds (%"class.std::ios_base::Init", %"class.std::ios_base::Init"* @_ZStL8__ioinit, i64 0, i32 0), i8* nonnull @__dso_handle) #9
  ret void
}

; Function Attrs: nofree nosync nounwind readnone willreturn
declare i32 @llvm.vector.reduce.add.v4i32(<4 x i32>) #8


!llvm.module.flags = !{!0, !1, !2, !3}
!llvm.ident = !{!4}

!0 = !{i32 1, !"wchar_size", i32 4}
!1 = !{i32 7, !"PIC Level", i32 2}
!2 = !{i32 7, !"PIE Level", i32 2}
!3 = !{i32 7, !"uwtable", i32 1}
!4 = !{!"clang version 13.0.0"}
!5 = !{!6, !6, i64 0}
!6 = !{!"int", !7, i64 0}
!7 = !{!"omnipotent char", !8, i64 0}
!8 = !{!"Simple C++ TBAA"}
!9 = distinct !{!9, !10}
!10 = !{!"llvm.loop.mustprogress"}
!11 = distinct !{!11, !10}
!12 = distinct !{!12, !10, !13}
!13 = !{!"llvm.loop.isvectorized", i32 1}
!14 = distinct !{!14, !10, !15, !13}
!15 = !{!"llvm.loop.unroll.runtime.disable"}
!16 = !{!17, !17, i64 0}
!17 = !{!"vtable pointer", !8, i64 0}
!18 = !{!19, !20, i64 240}
!19 = !{!"_ZTSSt9basic_iosIcSt11char_traitsIcEE", !20, i64 216, !7, i64 224, !21, i64 225, !20, i64 232, !20, i64 240, !20, i64 248, !20, i64 256}
!20 = !{!"any pointer", !7, i64 0}
!21 = !{!"bool", !7, i64 0}
!22 = !{!23, !7, i64 56}
!23 = !{!"_ZTSSt5ctypeIcE", !20, i64 16, !21, i64 24, !20, i64 32, !20, i64 40, !20, i64 48, !7, i64 56, !7, i64 57, !7, i64 313, !7, i64 569}
!24 = !{!7, !7, i64 0}
!25 = distinct !{!25, !10}
